Certificate:
    Data:
        Version: 3 (0x2)
        Serial Number: 16983733478354280881 (0xebb2579d693761b1)
    Signature Algorithm: sha256WithRSAEncryption
        Issuer: C=AU, ST=Some-State, O=Herp Derp plc, OU=herp.derp.plc, CN=herp.derp.plc
        Validity
            Not Before: Sep  1 23:29:35 2015 GMT
            Not After : Sep  2 23:29:35 2015 GMT
        Subject: C=AU, ST=Some-State, O=Herp Derp plc, OU=herp.derp.plc, CN=herp.derp.plc
        Subject Public Key Info:
            Public Key Algorithm: rsaEncryption
                Public-Key: (1024 bit)
                Modulus:
                    00:9e:7a:a8:35:41:e7:1c:bf:c8:6a:8f:50:4f:f4:
                    a1:09:5f:94:2c:14:2c:51:eb:63:3c:a6:53:db:e6:
                    de:2c:2e:8f:14:61:f6:5d:ea:41:4b:70:e3:fc:c7:
                    3c:30:bf:1f:de:15:8e:92:bb:1e:76:7a:74:35:f7:
                    ba:3c:68:cc:32:3f:be:e1:32:16:6a:b5:df:0d:0a:
                    02:c9:31:59:54:6d:18:70:2e:d8:b4:4a:41:c5:3e:
                    27:34:c0:08:3e:7a:c7:d7:6b:ac:a1:77:94:f1:0b:
                    e6:ed:8b:b3:20:57:f9:63:03:cd:17:43:11:c7:f3:
                    13:a3:74:ea:06:37:40:c7:7d
                Exponent: 65537 (0x10001)
        X509v3 extensions:
            X509v3 Subject Key Identifier:
                DE:D6:97:31:61:61:AB:34:2F:EE:92:CB:85:96:80:86:BF:8D:60:DD
            X509v3 Authority Key Identifier:
                keyid:DE:D6:97:31:61:61:AB:34:2F:EE:92:CB:85:96:80:86:BF:8D:60:DD

            X509v3 Basic Constraints:
                CA:TRUE
    Signature Algorithm: sha256WithRSAEncryption
         9a:50:80:40:5a:11:3d:99:0c:85:0a:68:e2:ad:8a:c9:db:c0:
         9d:2f:80:1a:f6:52:cb:bd:5d:3c:de:41:b3:50:76:d9:d9:7a:
         e9:ae:97:f4:68:dc:78:4c:90:82:5f:e9:57:17:70:49:26:18:
         2b:ab:96:b7:26:0d:6f:63:4e:fd:40:6c:44:6a:5f:b9:26:76:
         8d:1b:4a:74:3b:b2:cf:b5:cc:5b:50:a6:ea:1c:67:3a:13:29:
         69:93:e2:b6:9e:14:97:a0:b2:3f:5f:3a:f4:c9:7f:5d:5a:7a:
         7c:95:d4:2c:dc:83:a2:ba:5f:a9:10:de:f7:80:3d:e6:63:e8:
         5b:ef
-----BEGIN CERTIFICATE-----
MIICojCCAgugAwIBAgIJAOuyV51pN2GxMA0GCSqGSIb3DQEBCwUAMGoxCzAJBgNV
BAYTAkFVMRMwEQYDVQQIDApTb21lLVN0YXRlMRYwFAYDVQQKDA1IZXJwIERlcnAg
cGxjMRYwFAYDVQQLDA1oZXJwLmRlcnAucGxjMRYwFAYDVQQDDA1oZXJwLmRlcnAu
cGxjMB4XDTE1MDkwMTIzMjkzNVoXDTE1MDkwMjIzMjkzNVowajELMAkGA1UEBhMC
QVUxEzARBgNVBAgMClNvbWUtU3RhdGUxFjAUBgNVBAoMDUhlcnAgRGVycCBwbGMx
FjAUBgNVBAsMDWhlcnAuZGVycC5wbGMxFjAUBgNVBAMMDWhlcnAuZGVycC5wbGMw
gZ8wDQYJKoZIhvcNAQEBBQADgY0AMIGJAoGBAJ56qDVB5xy/yGqPUE/0oQlflCwU
LFHrYzymU9vm3iwujxRh9l3qQUtw4/zHPDC/H94VjpK7HnZ6dDX3ujxozDI/vuEy
Fmq13w0KAskxWVRtGHAu2LRKQcU+JzTACD56x9drrKF3lPEL5u2LsyBX+WMDzRdD
EcfzE6N06gY3QMd9AgMBAAGjUDBOMB0GA1UdDgQWBBTe1pcxYWGrNC/uksuFloCG
v41g3TAfBgNVHSMEGDAWgBTe1pcxYWGrNC/uksuFloCGv41g3TAMBgNVHRMEBTAD
AQH/MA0GCSqGSIb3DQEBCwUAA4GBAJpQgEBaET2ZDIUKaOKtisnbwJ0vgBr2Usu9
XTzeQbNQdtnZeumul/Ro3HhMkIJf6VcXcEkmGCurlrcmDW9jTv1AbERqX7kmdo0b
SnQ7ss+1zFtQpuocZzoTKWmT4raeFJegsj9fOvTJf11aenyV1Czcg6K6X6kQ3veA
PeZj6Fvv
-----END CERTIFICATE-----