Certificate:
    Data:
        Version: 3 (0x2)
        Serial Number:
            a9:d8:fe:87:d0:95:01:12
        Signature Algorithm: sha1WithRSAEncryption
        Issuer: C=UK, ST=Some-State, O=OSSG, CN=anchor.example.com
        Validity
            Not Before: Mar  6 11:44:40 2015 GMT
            Not After : Mar  5 11:44:40 2018 GMT
        Subject: C=UK, ST=Some-State, O=OSSG, CN=anchor.example.com
        Subject Public Key Info:
            Public Key Algorithm: rsaEncryption
            RSA Public Key: (1024 bit)
                Modulus (1024 bit):
                    00:d7:4c:80:83:75:7b:60:c8:ca:a6:7c:5a:2b:8f:
                    8f:67:af:89:0e:05:cb:3d:01:d1:bc:e6:22:06:08:
                    4a:d1:60:2d:6d:0b:a4:b3:bf:51:3e:95:b9:4e:7d:
                    a7:44:c9:fd:27:ca:4a:32:a6:d2:b7:68:f8:17:6b:
                    94:be:18:6b:b6:cd:54:90:a1:79:a9:8b:16:dd:02:
                    bd:8c:22:e0:23:72:71:de:a2:62:b3:12:3c:a3:35:
                    c6:f0:6b:96:04:96:14:88:df:2a:62:5f:6f:19:08:
                    59:dc:6d:52:14:37:c6:94:76:97:e3:64:29:c9:28:
                    13:e9:52:04:fe:18:6c:4e:17
                Exponent: 65537 (0x10001)
        X509v3 extensions:
            X509v3 Subject Key Identifier: 
                56:35:71:FD:CB:C7:5B:2F:C0:02:C2:2E:3B:9D:7B:FD:6F:CB:BB:9C
            X509v3 Authority Key Identifier: 
                keyid:56:35:71:FD:CB:C7:5B:2F:C0:02:C2:2E:3B:9D:7B:FD:6F:CB:BB:9C
                DirName:/C=UK/ST=Some-State/O=OSSG/CN=anchor.example.com
                serial:A9:D8:FE:87:D0:95:01:12

            X509v3 Basic Constraints: 
                CA:TRUE
    Signature Algorithm: sha1WithRSAEncryption
        02:2e:25:2c:7b:ab:d5:cf:98:a7:ee:40:c6:d3:f2:45:4b:1f:
        40:a9:f5:1f:17:2e:1c:96:f8:fa:34:2b:05:e4:e7:f3:94:31:
        a6:d9:cc:d4:fa:0c:71:f0:23:7e:d4:c2:84:f0:d6:25:14:41:
        24:aa:52:98:36:a8:37:fa:9f:12:3f:2f:17:22:db:35:1a:01:
        2e:ff:02:de:f5:12:3b:40:7d:7e:c2:80:c6:9a:66:4d:ba:c5:
        43:a8:0f:ec:d3:9c:7c:ec:23:a6:40:6e:a2:c3:5d:e5:1f:78:
        cf:da:44:ab:26:b8:91:a5:ef:0f:2e:ce:b9:eb:2a:06:21:88:
        e5:2a
-----BEGIN CERTIFICATE-----
MIICyzCCAjSgAwIBAgIJAKnY/ofQlQESMA0GCSqGSIb3DQEBBQUAME4xCzAJBgNV
BAYTAlVLMRMwEQYDVQQIEwpTb21lLVN0YXRlMQ0wCwYDVQQKEwRPU1NHMRswGQYD
VQQDExJhbmNob3IuZXhhbXBsZS5jb20wHhcNMTUwMzA2MTE0NDQwWhcNMTgwMzA1
MTE0NDQwWjBOMQswCQYDVQQGEwJVSzETMBEGA1UECBMKU29tZS1TdGF0ZTENMAsG
A1UEChMET1NTRzEbMBkGA1UEAxMSYW5jaG9yLmV4YW1wbGUuY29tMIGfMA0GCSqG
SIb3DQEBAQUAA4GNADCBiQKBgQDXTICDdXtgyMqmfForj49nr4kOBcs9AdG85iIG
CErRYC1tC6Szv1E+lblOfadEyf0nykoyptK3aPgXa5S+GGu2zVSQoXmpixbdAr2M
IuAjcnHeomKzEjyjNcbwa5YElhSI3ypiX28ZCFncbVIUN8aUdpfjZCnJKBPpUgT+
GGxOFwIDAQABo4GwMIGtMB0GA1UdDgQWBBRWNXH9y8dbL8ACwi47nXv9b8u7nDB+
BgNVHSMEdzB1gBRWNXH9y8dbL8ACwi47nXv9b8u7nKFSpFAwTjELMAkGA1UEBhMC
VUsxEzARBgNVBAgTClNvbWUtU3RhdGUxDTALBgNVBAoTBE9TU0cxGzAZBgNVBAMT
EmFuY2hvci5leGFtcGxlLmNvbYIJAKnY/ofQlQESMAwGA1UdEwQFMAMBAf8wDQYJ
KoZIhvcNAQEFBQADgYEAAi4lLHur1c+Yp+5AxtPyRUsfQKn1HxcuHJb4+jQrBeTn
85QxptnM1PoMcfAjftTChPDWJRRBJKpSmDaoN/qfEj8vFyLbNRoBLv8C3vUSO0B9
fsKAxppmTbrFQ6gP7NOcfOwjpkBuosNd5R94z9pEqya4kaXvDy7OuesqBiGI5So=
-----END CERTIFICATE-----
